target datalayout = "e-m:e-p270:32:32-p271:32:32-p272:64:64-i64:64-i128:128-f80:128-n8:16:32:64-S128"
target triple = "x86_64-pc-linux-gnu"

%class.ZPage = type { i8, i8, i8, i8, i32, i32, %class.ZVirtualMemory, i64, %class.ZLiveMap, %class.ZRememberedSet, i64, %class.ZPhysicalMemory, %class.ZListNode }
%class.ZVirtualMemory = type { i64, i64 }
%class.ZLiveMap = type { i32, i32, i64, i64, i64, %class.ZBitMap, i64 }
%class.ZBitMap = type { %class.CHeapBitMap.base, [7 x i8] }
%class.CHeapBitMap.base = type <{ %class.GrowableBitMap, i8 }>
%class.GrowableBitMap = type { %class.BitMap }
%class.BitMap = type { ptr, i64 }
%class.ZRememberedSet = type { [2 x %class.ZMovableBitMap] }
%class.ZMovableBitMap = type { %class.CHeapBitMap.base, [7 x i8] }
%class.ZPhysicalMemory = type { %class.GrowableArrayCHeap }
%class.GrowableArrayCHeap = type { %class.GrowableArrayWithAllocator }
%class.GrowableArrayWithAllocator = type { %class.GrowableArrayView }
%class.GrowableArrayView = type { %class.GrowableArrayBase, ptr }
%class.GrowableArrayBase = type { i32, i32 }
%class.ZListNode = type { ptr, ptr }

@g_assert_poison = external global ptr, align 8
@ZObjectAlignmentSmallShift = external constant ptr, align 8
@ZObjectAlignmentMediumShift = external global i32, align 4
@.str.23 = private unnamed_addr constant [40 x i8] c"src/hotspot/share/gc/z/zPage.inline.hpp\00", align 1
@.str.24 = private unnamed_addr constant [21 x i8] c"Unexpected page type\00", align 1

; Function Attrs: mustprogress nounwind uwtable
define linkonce_odr hidden noundef i64 @_Z6untype11zoffset_end(i64 noundef %0) #1 comdat {
  %2 = alloca i64, align 8
  %3 = alloca i64, align 8
  store i64 %0, ptr %2, align 8
  %4 = load i64, ptr %2, align 8
  store i64 %4, ptr %3, align 8
  %5 = load i64, ptr %3, align 8
  ret i64 %5
}

; Function Attrs: mustprogress nounwind uwtable
define linkonce_odr hidden noundef i64 @_Zmi11zoffset_end7zoffset(i64 noundef %0, i64 noundef %1) #1 comdat {
  %3 = alloca i64, align 8
  %4 = alloca i64, align 8
  store i64 %0, ptr %3, align 8
  store i64 %1, ptr %4, align 8
  %5 = load i64, ptr %3, align 8
  %6 = call noundef i64 @_Z6untype11zoffset_end(i64 noundef %5)
  %7 = load i64, ptr %4, align 8
  %8 = call noundef i64 @_Z6untype7zoffset(i64 noundef %7)
  %9 = sub i64 %6, %8
  ret i64 %9
}

; Function Attrs: mustprogress nounwind uwtable
define linkonce_odr hidden noundef i64 @_ZNK14ZVirtualMemory4sizeEv(ptr noundef nonnull align 8 dereferenceable(16) %0) #1 comdat align 2 {
  %2 = alloca ptr, align 8
  store ptr %0, ptr %2, align 8
  %3 = load ptr, ptr %2, align 8
  %4 = getelementptr inbounds %class.ZVirtualMemory, ptr %3, i32 0, i32 1
  %5 = load i64, ptr %4, align 8
  %6 = getelementptr inbounds %class.ZVirtualMemory, ptr %3, i32 0, i32 0
  %7 = load i64, ptr %6, align 8
  %8 = call noundef i64 @_Zmi11zoffset_end7zoffset(i64 noundef %5, i64 noundef %7)
  ret i64 %8
}

; Function Attrs: mustprogress nounwind uwtable
define linkonce_odr hidden noundef i64 @_ZNK5ZPage22object_alignment_shiftEv(ptr noundef nonnull align 8 dereferenceable(192) %0) #1 comdat align 2 {
  %2 = alloca i64, align 8
  %3 = alloca ptr, align 8
  store ptr %0, ptr %3, align 8
  %4 = load ptr, ptr %3, align 8
  %5 = call noundef zeroext i8 @_ZNK5ZPage4typeEv(ptr noundef nonnull align 8 dereferenceable(192) %4)
  switch i8 %5, label %14 [
    i8 0, label %6
    i8 1, label %10
    i8 2, label %13
  ]

6:                                                ; preds = %1
  %7 = load ptr, ptr @ZObjectAlignmentSmallShift, align 8
  %8 = load i32, ptr %7, align 4
  %9 = sext i32 %8 to i64
  store i64 %9, ptr %2, align 8
  br label %18

10:                                               ; preds = %1
  %11 = load i32, ptr @ZObjectAlignmentMediumShift, align 4
  %12 = sext i32 %11 to i64
  store i64 %12, ptr %2, align 8
  br label %18

13:                                               ; preds = %1
  store i64 21, ptr %2, align 8
  br label %18

14:                                               ; preds = %1
  br label %15

15:                                               ; preds = %14
  %16 = load ptr, ptr @g_assert_poison, align 8
  store i8 88, ptr %16, align 1
  call void (i32, ptr, i32, ptr, ...) @_Z12report_fatal11VMErrorTypePKciS1_z(i32 noundef -536870912, ptr noundef @.str.23, i32 noundef 95, ptr noundef @.str.24) #9
  unreachable

17:                                               ; No predecessors!
  store i64 0, ptr %2, align 8
  br label %18

18:                                               ; preds = %17, %13, %10, %6
  %19 = load i64, ptr %2, align 8
  ret i64 %19
}

; Function Attrs: mustprogress nounwind uwtable
define linkonce_odr hidden noundef i64 @_ZNK5ZPage4sizeEv(ptr noundef nonnull align 8 dereferenceable(192) %0) #1 comdat align 2 {
  %2 = alloca ptr, align 8
  store ptr %0, ptr %2, align 8
  %3 = load ptr, ptr %2, align 8
  %4 = getelementptr inbounds %class.ZPage, ptr %3, i32 0, i32 6
  %5 = call noundef i64 @_ZNK14ZVirtualMemory4sizeEv(ptr noundef nonnull align 8 dereferenceable(16) %4)
  ret i64 %5
}

; Function Attrs: mustprogress nounwind uwtable
define linkonce_odr hidden noundef zeroext i8 @_ZNK5ZPage4typeEv(ptr noundef nonnull align 8 dereferenceable(192) %0) #1 comdat align 2 {
  %2 = alloca ptr, align 8
  store ptr %0, ptr %2, align 8
  %3 = load ptr, ptr %2, align 8
  %4 = getelementptr inbounds %class.ZPage, ptr %3, i32 0, i32 0
  %5 = load i8, ptr %4, align 8
  ret i8 %5
}

; Function Attrs: mustprogress nounwind uwtable
define linkonce_odr hidden noundef i64 @_Z6untype7zoffset(i64 noundef %0) #1 comdat {
  %2 = alloca i64, align 8
  %3 = alloca i64, align 8
  store i64 %0, ptr %2, align 8
  %4 = load i64, ptr %2, align 8
  store i64 %4, ptr %3, align 8
  %5 = load i64, ptr %3, align 8
  ret i64 %5
}

; Function Attrs: mustprogress nounwind uwtable
define linkonce_odr hidden noundef i64 @_ZNK14ZVirtualMemory5startEv(ptr noundef nonnull align 8 dereferenceable(16) %0) #1 comdat align 2 {
  %2 = alloca ptr, align 8
  store ptr %0, ptr %2, align 8
  %3 = load ptr, ptr %2, align 8
  %4 = getelementptr inbounds %class.ZVirtualMemory, ptr %3, i32 0, i32 0
  %5 = load i64, ptr %4, align 8
  ret i64 %5
}

; Function Attrs: mustprogress nounwind uwtable
define linkonce_odr hidden void @_ZN9ZListNodeI5ZPageEC2Ev(ptr noundef nonnull align 8 dereferenceable(16) %0) unnamed_addr #1 comdat align 2 {
  %2 = alloca ptr, align 8
  store ptr %0, ptr %2, align 8
  %3 = load ptr, ptr %2, align 8
  %4 = getelementptr inbounds %class.ZListNode, ptr %3, i32 0, i32 0
  store ptr %3, ptr %4, align 8
  %5 = getelementptr inbounds %class.ZListNode, ptr %3, i32 0, i32 1
  store ptr %3, ptr %5, align 8
  ret void
}

; Function Attrs: mustprogress nounwind uwtable
define linkonce_odr hidden noundef i32 @_ZNK5ZPage16object_max_countEv(ptr noundef nonnull align 8 dereferenceable(192) %0) #1 comdat align 2 {
  %2 = alloca i32, align 4
  %3 = alloca ptr, align 8
  store ptr %0, ptr %3, align 8
  %4 = load ptr, ptr %3, align 8
  %5 = call noundef zeroext i8 @_ZNK5ZPage4typeEv(ptr noundef nonnull align 8 dereferenceable(192) %4)
  switch i8 %5, label %7 [
    i8 2, label %6
  ]

6:                                                ; preds = %1
  store i32 1, ptr %2, align 4
  br label %12

7:                                                ; preds = %1
  %8 = call noundef i64 @_ZNK5ZPage4sizeEv(ptr noundef nonnull align 8 dereferenceable(192) %4)
  %9 = call noundef i64 @_ZNK5ZPage22object_alignment_shiftEv(ptr noundef nonnull align 8 dereferenceable(192) %4)
  %10 = lshr i64 %8, %9
  %11 = trunc i64 %10 to i32
  store i32 %11, ptr %2, align 4
  br label %12

12:                                               ; preds = %7, %6
  %13 = load i32, ptr %2, align 4
  ret i32 %13
}

; Function Attrs: mustprogress nounwind uwtable
define linkonce_odr hidden noundef i64 @_Z14to_zoffset_end7zoffset(i64 noundef %0) #1 comdat {
  %2 = alloca i64, align 8
  store i64 %0, ptr %2, align 8
  %3 = load i64, ptr %2, align 8
  %4 = call noundef i64 @_Z6untype7zoffset(i64 noundef %3)
  ret i64 %4
}

; Function Attrs: mustprogress nounwind uwtable
define linkonce_odr hidden noundef i64 @_ZNK5ZPage5startEv(ptr noundef nonnull align 8 dereferenceable(192) %0) #1 comdat align 2 {
  %2 = alloca ptr, align 8
  store ptr %0, ptr %2, align 8
  %3 = load ptr, ptr %2, align 8
  %4 = getelementptr inbounds %class.ZPage, ptr %3, i32 0, i32 6
  %5 = call noundef i64 @_ZNK14ZVirtualMemory5startEv(ptr noundef nonnull align 8 dereferenceable(16) %4)
  ret i64 %5
}

; Function Attrs: mustprogress nounwind uwtable
define hidden void @_ZN5ZPageC2E9ZPageTypeRK14ZVirtualMemoryRK15ZPhysicalMemory(ptr noundef nonnull align 8 dereferenceable(192) %0, i8 noundef zeroext %1, ptr noundef nonnull align 8 dereferenceable(16) %2, ptr noundef nonnull align 8 dereferenceable(16) %3) unnamed_addr #1 align 2 {
  %5 = alloca ptr, align 8
  %6 = alloca i8, align 1
  %7 = alloca ptr, align 8
  %8 = alloca ptr, align 8
  store ptr %0, ptr %5, align 8
  store i8 %1, ptr %6, align 1
  store ptr %2, ptr %7, align 8
  store ptr %3, ptr %8, align 8
  %9 = load ptr, ptr %5, align 8
  %10 = getelementptr inbounds %class.ZPage, ptr %9, i32 0, i32 0
  %11 = load i8, ptr %6, align 1
  store i8 %11, ptr %10, align 8
  %12 = getelementptr inbounds %class.ZPage, ptr %9, i32 0, i32 1
  store i8 0, ptr %12, align 1
  %13 = getelementptr inbounds %class.ZPage, ptr %9, i32 0, i32 2
  store i8 0, ptr %13, align 2
  %14 = getelementptr inbounds %class.ZPage, ptr %9, i32 0, i32 3
  store i8 -1, ptr %14, align 1
  %15 = getelementptr inbounds %class.ZPage, ptr %9, i32 0, i32 4
  store i32 0, ptr %15, align 4
  %16 = getelementptr inbounds %class.ZPage, ptr %9, i32 0, i32 5
  store i32 0, ptr %16, align 8
  %17 = getelementptr inbounds %class.ZPage, ptr %9, i32 0, i32 6
  %18 = load ptr, ptr %7, align 8
  call void @llvm.memcpy.p0.p0.i64(ptr align 8 %17, ptr align 8 %18, i64 16, i1 false)
  %19 = getelementptr inbounds %class.ZPage, ptr %9, i32 0, i32 7
  %20 = call noundef i64 @_ZNK5ZPage5startEv(ptr noundef nonnull align 8 dereferenceable(192) %9)
  %21 = call noundef i64 @_Z14to_zoffset_end7zoffset(i64 noundef %20)
  store volatile i64 %21, ptr %19, align 8
  %22 = getelementptr inbounds %class.ZPage, ptr %9, i32 0, i32 8
  %23 = call noundef i32 @_ZNK5ZPage16object_max_countEv(ptr noundef nonnull align 8 dereferenceable(192) %9)
  call void @_ZN8ZLiveMapC1Ej(ptr noundef nonnull align 8 dereferenceable(64) %22, i32 noundef %23)
  %24 = getelementptr inbounds %class.ZPage, ptr %9, i32 0, i32 9
  call void @_ZN14ZRememberedSetC1Ev(ptr noundef nonnull align 8 dereferenceable(48) %24)
  %25 = getelementptr inbounds %class.ZPage, ptr %9, i32 0, i32 10
  store i64 0, ptr %25, align 8
  %26 = getelementptr inbounds %class.ZPage, ptr %9, i32 0, i32 11
  %27 = load ptr, ptr %8, align 8
  call void @_ZN15ZPhysicalMemoryC1ERKS_(ptr noundef nonnull align 8 dereferenceable(16) %26, ptr noundef nonnull align 8 dereferenceable(16) %27)
  %28 = getelementptr inbounds %class.ZPage, ptr %9, i32 0, i32 12
  call void @_ZN9ZListNodeI5ZPageEC2Ev(ptr noundef nonnull align 8 dereferenceable(16) %28)
  ret void
}