; Function Attrs: mustprogress nounwind uwtable
define hidden void @_ZN5ZPageC2E9ZPageTypeRK14ZVirtualMemoryRK15ZPhysicalMemory(ptr noundef nonnull align 8 dereferenceable(192) %0, i8 noundef zeroext %1, ptr nocapture noundef nonnull readonly align 8 dereferenceable(16) %2, ptr noundef nonnull align 8 dereferenceable(16) %3) unnamed_addr #0 align 2 {
  store i8 %1, ptr %0, align 8
  %5 = getelementptr inbounds i8, ptr %0, i64 1
  store i8 0, ptr %5, align 1
  %6 = getelementptr inbounds i8, ptr %0, i64 2
  store i8 0, ptr %6, align 2
  %7 = getelementptr inbounds i8, ptr %0, i64 3
  store i8 -1, ptr %7, align 1
  %8 = getelementptr inbounds i8, ptr %0, i64 4
  store i32 0, ptr %8, align 4
  %9 = getelementptr inbounds i8, ptr %0, i64 8
  store i32 0, ptr %9, align 8
  %10 = getelementptr inbounds i8, ptr %0, i64 16
  tail call void @llvm.memcpy.p0.p0.i64(ptr noundef nonnull align 8 dereferenceable(16) %10, ptr noundef nonnull align 8 dereferenceable(16) %2, i64 16, i1 false)
  %11 = getelementptr inbounds i8, ptr %0, i64 32
  %12 = load i64, ptr %10, align 8
  store volatile i64 %12, ptr %11, align 8
  %cond.i = icmp eq i8 %1, 2
  br i1 %cond.i, label %_ZNK5ZPage16object_max_countEv.exit, label %13

13:                                               ; preds = %4
  %14 = getelementptr inbounds i8, ptr %0, i64 24
  %15 = load i64, ptr %14, align 8
  %16 = sub i64 %15, %12
  switch i8 %1, label %19 [
    i8 0, label %17
    i8 1, label %_ZNK5ZPage22object_alignment_shiftEv.exit.i
  ]

17:                                               ; preds = %13
  %18 = load ptr, ptr @ZObjectAlignmentSmallShift, align 8
  br label %_ZNK5ZPage22object_alignment_shiftEv.exit.i

19:                                               ; preds = %13
  %20 = load ptr, ptr @g_assert_poison, align 8
  store i8 88, ptr %20, align 1
  tail call void (i32, ptr, i32, ptr, ...) @_Z12report_fatal11VMErrorTypePKciS1_z(i32 noundef -536870912, ptr noundef nonnull @.str.23, i32 noundef 95, ptr noundef nonnull @.str.24) #12
  unreachable

_ZNK5ZPage22object_alignment_shiftEv.exit.i:      ; preds = %17, %13
  %.0.i.in.in.i = phi ptr [ %18, %17 ], [ @ZObjectAlignmentMediumShift, %13 ]
  %.0.i.in.i = load i32, ptr %.0.i.in.in.i, align 4
  %.0.i1.i = zext nneg i32 %.0.i.in.i to i64
  %21 = lshr i64 %16, %.0.i1.i
  %22 = trunc i64 %21 to i32
  br label %_ZNK5ZPage16object_max_countEv.exit

_ZNK5ZPage16object_max_countEv.exit:              ; preds = %4, %_ZNK5ZPage22object_alignment_shiftEv.exit.i
  %.0.i = phi i32 [ %22, %_ZNK5ZPage22object_alignment_shiftEv.exit.i ], [ 1, %4 ]
  %23 = getelementptr inbounds i8, ptr %0, i64 40
  tail call void @_ZN8ZLiveMapC1Ej(ptr noundef nonnull align 8 dereferenceable(64) %23, i32 noundef %.0.i) #13
  %24 = getelementptr inbounds i8, ptr %0, i64 104
  tail call void @_ZN14ZRememberedSetC1Ev(ptr noundef nonnull align 8 dereferenceable(48) %24) #13
  %25 = getelementptr inbounds i8, ptr %0, i64 152
  store i64 0, ptr %25, align 8
  %26 = getelementptr inbounds i8, ptr %0, i64 160
  tail call void @_ZN15ZPhysicalMemoryC1ERKS_(ptr noundef nonnull align 8 dereferenceable(16) %26, ptr noundef nonnull align 8 dereferenceable(16) %3) #13
  %27 = getelementptr inbounds i8, ptr %0, i64 176
  store ptr %27, ptr %27, align 8
  %28 = getelementptr inbounds i8, ptr %0, i64 184
  store ptr %27, ptr %28, align 8
  ret void
}